; Function Attrs: mustprogress uwtable
define void @_ZN3net15QuicSpdySession22RegisterStreamPriorityEjh(ptr noundef nonnull align 8 dereferenceable(2057) %0, i32 noundef %1, i8 noundef zeroext %2) local_unnamed_addr #0 align 2 {
  %4 = alloca %"class.net::StreamPrecedence", align 4
  %5 = getelementptr inbounds nuw i8, ptr %0, i64 1056
  call void @llvm.lifetime.start.p0(i64 16, ptr nonnull %4) #18
  store i8 1, ptr %4, align 4, !tbaa !232
  %6 = getelementptr inbounds nuw i8, ptr %4, i64 4
  %7 = tail call noundef zeroext i8 @_ZN3net18ClampSpdy3PriorityEh(i8 noundef zeroext %2)
  store i8 %7, ptr %6, align 4, !tbaa !234
  call void @_ZN3net22PriorityWriteSchedulerIjE14RegisterStreamEjRKNS_16StreamPrecedenceIjEE(ptr noundef nonnull align 8 dereferenceable(843) %5, i32 noundef %1, ptr noundef nonnull align 4 dereferenceable(16) %4)
  call void @llvm.lifetime.end.p0(i64 16, ptr nonnull %4) #18
  ret void
}